target datalayout = "e-m:e-p270:32:32-p271:32:32-p272:64:64-i64:64-i128:128-f80:128-n8:16:32:64-S128"
target triple = "x86_64-pc-linux-gnu"

@.str.14 = private unnamed_addr constant [13 x i8] c"Pipe timeout\00", align 1
@.str.15 = private unnamed_addr constant [18 x i8] c"Pipe select error\00", align 1

; Function Attrs: nounwind uwtable
define internal i64 @read_pipe(i32 noundef %0, ptr noundef %1, ptr noundef %2) #0 {
  %4 = alloca i32, align 4
  %5 = alloca ptr, align 8
  %6 = alloca ptr, align 8
  %7 = alloca i32, align 4
  %8 = alloca ptr, align 8
  %9 = alloca [4096 x i8], align 16
  %10 = alloca i64, align 8
  %11 = alloca i64, align 8
  %12 = alloca i64, align 8
  store i32 %0, ptr %4, align 4
  store ptr %1, ptr %5, align 8
  store ptr %2, ptr %6, align 8
  call void @llvm.lifetime.start.p0(i64 4, ptr %7) #9
  store i32 0, ptr %7, align 4
  call void @llvm.lifetime.start.p0(i64 8, ptr %8) #9
  store ptr null, ptr %8, align 8
  call void @llvm.lifetime.start.p0(i64 4096, ptr %9) #9
  call void @llvm.lifetime.start.p0(i64 8, ptr %10) #9
  store i64 0, ptr %10, align 8
  call void @llvm.lifetime.start.p0(i64 8, ptr %11) #9
  store i64 0, ptr %11, align 8
  call void @llvm.lifetime.start.p0(i64 8, ptr %12) #9
  store i64 0, ptr %12, align 8
  %13 = load i32, ptr %4, align 4
  %14 = call i32 @SDL_IOReady(i32 noundef %13, i32 noundef 1, i64 noundef 14000000)
  store i32 %14, ptr %7, align 4
  %15 = load i32, ptr %7, align 4
  %16 = icmp eq i32 %15, 0
  br i1 %16, label %17, label %20

17:                                               ; preds = %3
  %18 = call zeroext i1 (ptr, ...) @SDL_SetError_REAL(ptr noundef @.str.14)
  %19 = zext i1 %18 to i64
  store i64 %19, ptr %11, align 8
  br label %31

20:                                               ; preds = %3
  %21 = load i32, ptr %7, align 4
  %22 = icmp slt i32 %21, 0
  br i1 %22, label %23, label %26

23:                                               ; preds = %20
  %24 = call zeroext i1 (ptr, ...) @SDL_SetError_REAL(ptr noundef @.str.15)
  %25 = zext i1 %24 to i64
  store i64 %25, ptr %11, align 8
  br label %30

26:                                               ; preds = %20
  %27 = load i32, ptr %4, align 4
  %28 = getelementptr inbounds [4096 x i8], ptr %9, i64 0, i64 0
  %29 = call i64 @read(i32 noundef %27, ptr noundef %28, i64 noundef 4096)
  store i64 %29, ptr %11, align 8
  br label %30

30:                                               ; preds = %26, %23
  br label %31

31:                                               ; preds = %30, %17
  %32 = load i64, ptr %11, align 8
  %33 = icmp sgt i64 %32, 0
  br i1 %33, label %34, label %72

34:                                               ; preds = %31
  %35 = load ptr, ptr %6, align 8
  %36 = load i64, ptr %35, align 8
  store i64 %36, ptr %12, align 8
  %37 = load i64, ptr %11, align 8
  %38 = load ptr, ptr %6, align 8
  %39 = load i64, ptr %38, align 8
  %40 = add i64 %39, %37
  store i64 %40, ptr %38, align 8
  %41 = load ptr, ptr %6, align 8
  %42 = load i64, ptr %41, align 8
  %43 = add i64 %42, 4
  store i64 %43, ptr %10, align 8
  %44 = load ptr, ptr %5, align 8
  %45 = load ptr, ptr %44, align 8
  %46 = icmp ne ptr %45, null
  br i1 %46, label %50, label %47

47:                                               ; preds = %34
  %48 = load i64, ptr %10, align 8
  %49 = call noalias ptr @SDL_malloc_REAL(i64 noundef %48)
  store ptr %49, ptr %8, align 8
  br label %55

50:                                               ; preds = %34
  %51 = load ptr, ptr %5, align 8
  %52 = load ptr, ptr %51, align 8
  %53 = load i64, ptr %10, align 8
  %54 = call ptr @SDL_realloc_REAL(ptr noundef %52, i64 noundef %53) #10
  store ptr %54, ptr %8, align 8
  br label %55

55:                                               ; preds = %50, %47
  %56 = load ptr, ptr %8, align 8
  %57 = icmp ne ptr %56, null
  br i1 %57, label %59, label %58

58:                                               ; preds = %55
  store i64 -1, ptr %11, align 8
  br label %71

59:                                               ; preds = %55
  %60 = load ptr, ptr %8, align 8
  %61 = load i64, ptr %12, align 8
  %62 = getelementptr inbounds nuw i8, ptr %60, i64 %61
  %63 = getelementptr inbounds [4096 x i8], ptr %9, i64 0, i64 0
  %64 = load i64, ptr %11, align 8
  call void @llvm.memcpy.p0.p0.i64(ptr align 1 %62, ptr align 16 %63, i64 %64, i1 false)
  %65 = load ptr, ptr %8, align 8
  %66 = load i64, ptr %10, align 8
  %67 = sub i64 %66, 4
  %68 = getelementptr inbounds nuw i8, ptr %65, i64 %67
  call void @llvm.memset.p0.i64(ptr align 1 %68, i8 0, i64 4, i1 false)
  %69 = load ptr, ptr %8, align 8
  %70 = load ptr, ptr %5, align 8
  store ptr %69, ptr %70, align 8
  br label %71

71:                                               ; preds = %59, %58
  br label %72

72:                                               ; preds = %71, %31
  %73 = load i64, ptr %11, align 8
  call void @llvm.lifetime.end.p0(i64 8, ptr %12) #9
  call void @llvm.lifetime.end.p0(i64 8, ptr %11) #9
  call void @llvm.lifetime.end.p0(i64 8, ptr %10) #9
  call void @llvm.lifetime.end.p0(i64 4096, ptr %9) #9
  call void @llvm.lifetime.end.p0(i64 8, ptr %8) #9
  call void @llvm.lifetime.end.p0(i64 4, ptr %7) #9
  ret i64 %73
}