; Function Attrs: nounwind uwtable
define internal fastcc i64 @read_pipe(i32 noundef %0, ptr noundef nonnull captures(none) %1, ptr noundef captures(none) %2) unnamed_addr #0 {
  %4 = alloca [4096 x i8], align 16
  call void @llvm.lifetime.start.p0(i64 4096, ptr nonnull %4) #12
  %5 = tail call i32 @SDL_IOReady(i32 noundef %0, i32 noundef 1, i64 noundef 14000000) #12
  %6 = icmp eq i32 %5, 0
  br i1 %6, label %7, label %10

7:                                                ; preds = %3
  %8 = tail call zeroext i1 (ptr, ...) @SDL_SetError_REAL(ptr noundef nonnull @.str.14) #12
  %9 = zext i1 %8 to i64
  br label %17

10:                                               ; preds = %3
  %11 = icmp slt i32 %5, 0
  br i1 %11, label %12, label %15

12:                                               ; preds = %10
  %13 = tail call zeroext i1 (ptr, ...) @SDL_SetError_REAL(ptr noundef nonnull @.str.15) #12
  %14 = zext i1 %13 to i64
  br label %17

15:                                               ; preds = %10
  %16 = call i64 @read(i32 noundef %0, ptr noundef nonnull %4, i64 noundef 4096) #12
  br label %17

17:                                               ; preds = %12, %15, %7
  %.0 = phi i64 [ %9, %7 ], [ %14, %12 ], [ %16, %15 ]
  %18 = icmp sgt i64 %.0, 0
  br i1 %18, label %19, label %32

19:                                               ; preds = %17
  %20 = load i64, ptr %2, align 8
  %21 = add i64 %20, %.0
  store i64 %21, ptr %2, align 8
  %22 = add i64 %21, 4
  %23 = load ptr, ptr %1, align 8
  %.not = icmp eq ptr %23, null
  br i1 %.not, label %24, label %26

24:                                               ; preds = %19
  %25 = tail call noalias ptr @SDL_malloc_REAL(i64 noundef %22) #12
  br label %28

26:                                               ; preds = %19
  %27 = tail call ptr @SDL_realloc_REAL(ptr noundef nonnull %23, i64 noundef %22) #13
  br label %28

28:                                               ; preds = %26, %24
  %.021 = phi ptr [ %27, %26 ], [ %25, %24 ]
  %.not24 = icmp eq ptr %.021, null
  br i1 %.not24, label %32, label %29

29:                                               ; preds = %28
  %30 = getelementptr inbounds nuw i8, ptr %.021, i64 %20
  call void @llvm.memcpy.p0.p0.i64(ptr nonnull align 1 %30, ptr nonnull align 16 %4, i64 %.0, i1 false)
  %31 = getelementptr inbounds nuw i8, ptr %.021, i64 %21
  store i32 0, ptr %31, align 1
  store ptr %.021, ptr %1, align 8
  br label %32

32:                                               ; preds = %28, %29, %17
  %.1 = phi i64 [ %.0, %29 ], [ %.0, %17 ], [ -1, %28 ]
  call void @llvm.lifetime.end.p0(i64 4096, ptr nonnull %4) #12
  ret i64 %.1
}